target datalayout = "e-m:e-p270:32:32-p271:32:32-p272:64:64-i64:64-i128:128-f80:128-n8:16:32:64-S128"
target triple = "x86_64-pc-linux-gnu"

%struct.dt_lib_module_t = type { %struct.dt_action_t, ptr, ptr, ptr, ptr, ptr, ptr, ptr, ptr, ptr, ptr, ptr, ptr, ptr, ptr, ptr, ptr, ptr, ptr, ptr, ptr, ptr, ptr, ptr, ptr, ptr, ptr, ptr, ptr, ptr, ptr, [128 x i8], ptr, ptr, i32, ptr, ptr, ptr, i32 }
%struct.dt_action_t = type { i32, ptr, ptr, ptr, ptr, ptr }
%struct.dt_lib_tagging_t = type { [1024 x i8], ptr, ptr, ptr, ptr, ptr, ptr, ptr, ptr, ptr, ptr, ptr, ptr, ptr, ptr, ptr, ptr, ptr, ptr, ptr, ptr, ptr, i32, i32, i32, i32, i32, ptr, ptr, %struct.anon, i32 }
%struct.anon = type { ptr, ptr, ptr, i32, i32, i32, i32, i32 }
%struct._GtkTreeIter = type { i32, ptr, ptr, ptr }
%struct._GdkEventKey = type { i32, ptr, i8, i32, i32, i32, i32, ptr, i16, i8, i8 }

; Function Attrs: nounwind uwtable
define internal void @_unselect_all_in_view(ptr noundef %0) #0 {
  %2 = alloca ptr, align 8
  %3 = alloca ptr, align 8
  store ptr %0, ptr %2, align 8, !tbaa !35
  call void @llvm.lifetime.start.p0(i64 8, ptr %3) #11
  %4 = load ptr, ptr %2, align 8, !tbaa !35
  %5 = call ptr @gtk_tree_view_get_selection(ptr noundef %4)
  store ptr %5, ptr %3, align 8, !tbaa !59
  %6 = load ptr, ptr %3, align 8, !tbaa !59
  call void @gtk_tree_selection_unselect_all(ptr noundef %6)
  call void @llvm.lifetime.end.p0(i64 8, ptr %3) #11
  ret void
}

; Function Attrs: nounwind uwtable
define internal i32 @_attached_key_pressed(ptr noundef %0, ptr noundef %1, ptr noundef %2) #0 {
  %4 = alloca i32, align 4
  %5 = alloca ptr, align 8
  %6 = alloca ptr, align 8
  %7 = alloca ptr, align 8
  %8 = alloca ptr, align 8
  %9 = alloca %struct._GtkTreeIter, align 8
  %10 = alloca ptr, align 8
  %11 = alloca ptr, align 8
  %12 = alloca ptr, align 8
  %13 = alloca i32, align 4
  store ptr %0, ptr %5, align 8, !tbaa !108
  store ptr %1, ptr %6, align 8, !tbaa !149
  store ptr %2, ptr %7, align 8, !tbaa !6
  call void @llvm.lifetime.start.p0(i64 8, ptr %8) #11
  %14 = load ptr, ptr %7, align 8, !tbaa !6
  %15 = getelementptr inbounds nuw %struct.dt_lib_module_t, ptr %14, i32 0, i32 30
  %16 = load ptr, ptr %15, align 8, !tbaa !11
  store ptr %16, ptr %8, align 8, !tbaa !19
  %17 = load ptr, ptr %8, align 8, !tbaa !19
  %18 = getelementptr inbounds nuw %struct.dt_lib_tagging_t, ptr %17, i32 0, i32 4
  %19 = load ptr, ptr %18, align 8, !tbaa !40
  call void @_unselect_all_in_view(ptr noundef %19)
  call void @llvm.lifetime.start.p0(i64 32, ptr %9) #11
  call void @llvm.lifetime.start.p0(i64 8, ptr %10) #11
  %20 = load ptr, ptr %8, align 8, !tbaa !19
  %21 = getelementptr inbounds nuw %struct.dt_lib_tagging_t, ptr %20, i32 0, i32 3
  %22 = load ptr, ptr %21, align 8, !tbaa !34
  %23 = call i64 @gtk_tree_view_get_type() #12
  %24 = call ptr @g_type_check_instance_cast(ptr noundef %22, i64 noundef %23)
  %25 = call ptr @gtk_tree_view_get_model(ptr noundef %24)
  store ptr %25, ptr %10, align 8, !tbaa !36
  call void @llvm.lifetime.start.p0(i64 8, ptr %11) #11
  %26 = load ptr, ptr %5, align 8, !tbaa !108
  %27 = call i64 @gtk_tree_view_get_type() #12
  %28 = call ptr @g_type_check_instance_cast(ptr noundef %26, i64 noundef %27)
  %29 = call ptr @gtk_tree_view_get_selection(ptr noundef %28)
  store ptr %29, ptr %11, align 8, !tbaa !59
  %30 = load ptr, ptr %11, align 8, !tbaa !59
  %31 = call i32 @gtk_tree_selection_get_selected(ptr noundef %30, ptr noundef %10, ptr noundef %9)
  %32 = icmp ne i32 %31, 0
  br i1 %32, label %33, label %51

33:                                               ; preds = %3
  call void @llvm.lifetime.start.p0(i64 8, ptr %12) #11
  %34 = load ptr, ptr %10, align 8, !tbaa !36
  %35 = call ptr @gtk_tree_model_get_path(ptr noundef %34, ptr noundef %9)
  store ptr %35, ptr %12, align 8, !tbaa !138
  %36 = load ptr, ptr %6, align 8, !tbaa !149
  %37 = getelementptr inbounds nuw %struct._GdkEventKey, ptr %36, i32 0, i32 5
  %38 = load i32, ptr %37, align 4, !tbaa !151
  switch i32 %38, label %45 [
    i32 65535, label %39
    i32 65439, label %39
  ]

39:                                               ; preds = %33, %33
  %40 = load ptr, ptr %5, align 8, !tbaa !108
  %41 = call i64 @gtk_tree_view_get_type() #12
  %42 = call ptr @g_type_check_instance_cast(ptr noundef %40, i64 noundef %41)
  %43 = load ptr, ptr %7, align 8, !tbaa !6
  call void @_detach_selected_tag(ptr noundef %42, ptr noundef %43)
  %44 = load ptr, ptr %12, align 8, !tbaa !138
  call void @gtk_tree_path_free(ptr noundef %44)
  store i32 1, ptr %4, align 4
  store i32 1, ptr %13, align 4
  br label %48

45:                                               ; preds = %33
  br label %46

46:                                               ; preds = %45
  %47 = load ptr, ptr %12, align 8, !tbaa !138
  call void @gtk_tree_path_free(ptr noundef %47)
  store i32 0, ptr %13, align 4
  br label %48

48:                                               ; preds = %46, %39
  call void @llvm.lifetime.end.p0(i64 8, ptr %12) #11
  %49 = load i32, ptr %13, align 4
  switch i32 %49, label %72 [
    i32 0, label %50
  ]

50:                                               ; preds = %48
  br label %51

51:                                               ; preds = %50, %3
  %52 = load ptr, ptr %6, align 8, !tbaa !149
  %53 = getelementptr inbounds nuw %struct._GdkEventKey, ptr %52, i32 0, i32 5
  %54 = load i32, ptr %53, align 4, !tbaa !151
  %55 = icmp eq i32 %54, 65289
  br i1 %55, label %56, label %63

56:                                               ; preds = %51
  %57 = load ptr, ptr %11, align 8, !tbaa !59
  call void @gtk_tree_selection_unselect_all(ptr noundef %57)
  %58 = load ptr, ptr %8, align 8, !tbaa !19
  %59 = getelementptr inbounds nuw %struct.dt_lib_tagging_t, ptr %58, i32 0, i32 1
  %60 = load ptr, ptr %59, align 8, !tbaa !103
  %61 = call i64 @gtk_widget_get_type() #12
  %62 = call ptr @g_type_check_instance_cast(ptr noundef %60, i64 noundef %61)
  call void @gtk_widget_grab_focus(ptr noundef %62)
  store i32 1, ptr %4, align 4
  store i32 1, ptr %13, align 4
  br label %72

63:                                               ; preds = %51
  %64 = load ptr, ptr %6, align 8, !tbaa !149
  %65 = getelementptr inbounds nuw %struct._GdkEventKey, ptr %64, i32 0, i32 5
  %66 = load i32, ptr %65, align 4, !tbaa !151
  %67 = icmp eq i32 %66, 65056
  br i1 %67, label %68, label %70

68:                                               ; preds = %63
  %69 = load ptr, ptr %11, align 8, !tbaa !59
  call void @gtk_tree_selection_unselect_all(ptr noundef %69)
  store i32 1, ptr %4, align 4
  store i32 1, ptr %13, align 4
  br label %72

70:                                               ; preds = %63
  br label %71

71:                                               ; preds = %70
  store i32 0, ptr %4, align 4
  store i32 1, ptr %13, align 4
  br label %72

72:                                               ; preds = %71, %68, %56, %48
  call void @llvm.lifetime.end.p0(i64 8, ptr %11) #11
  call void @llvm.lifetime.end.p0(i64 8, ptr %10) #11
  call void @llvm.lifetime.end.p0(i64 32, ptr %9) #11
  call void @llvm.lifetime.end.p0(i64 8, ptr %8) #11
  %73 = load i32, ptr %4, align 4
  ret i32 %73
}