; Function Attrs: nounwind uwtable
define internal range(i32 0, 2) i32 @_attached_key_pressed(ptr noundef %0, ptr noundef readonly captures(none) %1, ptr noundef %2) #1 {
  %4 = alloca %struct._GtkTreeIter, align 8
  %5 = alloca ptr, align 8
  %6 = getelementptr inbounds nuw i8, ptr %2, i64 280
  %7 = load ptr, ptr %6, align 8, !tbaa !6
  %8 = getelementptr inbounds nuw i8, ptr %7, i64 1048
  %9 = load ptr, ptr %8, align 8, !tbaa !27
  %10 = tail call ptr @gtk_tree_view_get_selection(ptr noundef %9) #16
  tail call void @gtk_tree_selection_unselect_all(ptr noundef %10) #16
  call void @llvm.lifetime.start.p0(i64 32, ptr nonnull %4) #16
  call void @llvm.lifetime.start.p0(i64 8, ptr nonnull %5) #16
  %11 = getelementptr inbounds nuw i8, ptr %7, i64 1040
  %12 = load ptr, ptr %11, align 8, !tbaa !28
  %13 = tail call i64 @gtk_tree_view_get_type() #17
  %14 = tail call ptr @g_type_check_instance_cast(ptr noundef %12, i64 noundef %13) #16
  %15 = tail call ptr @gtk_tree_view_get_model(ptr noundef %14) #16
  store ptr %15, ptr %5, align 8, !tbaa !29
  %16 = tail call ptr @g_type_check_instance_cast(ptr noundef %0, i64 noundef %13) #16
  %17 = tail call ptr @gtk_tree_view_get_selection(ptr noundef %16) #16
  %18 = call i32 @gtk_tree_selection_get_selected(ptr noundef %17, ptr noundef nonnull %5, ptr noundef nonnull %4) #16
  %.not = icmp eq i32 %18, 0
  br i1 %.not, label %26, label %19

19:                                               ; preds = %3
  %20 = load ptr, ptr %5, align 8, !tbaa !29
  %21 = call ptr @gtk_tree_model_get_path(ptr noundef %20, ptr noundef nonnull %4) #16
  %22 = getelementptr inbounds nuw i8, ptr %1, i64 28
  %23 = load i32, ptr %22, align 4, !tbaa !122
  switch i32 %23, label %.critedge [
    i32 65535, label %24
    i32 65439, label %24
  ]

24:                                               ; preds = %19, %19
  %25 = call ptr @g_type_check_instance_cast(ptr noundef %0, i64 noundef %13) #16
  call fastcc void @_detach_selected_tag(ptr noundef %25, ptr noundef nonnull %2)
  call void @gtk_tree_path_free(ptr noundef %21) #16
  br label %35

.critedge:                                        ; preds = %19
  call void @gtk_tree_path_free(ptr noundef %21) #16
  br label %26

26:                                               ; preds = %.critedge, %3
  %27 = getelementptr inbounds nuw i8, ptr %1, i64 28
  %28 = load i32, ptr %27, align 4, !tbaa !122
  switch i32 %28, label %35 [
    i32 65289, label %29
    i32 65056, label %34
  ]

29:                                               ; preds = %26
  call void @gtk_tree_selection_unselect_all(ptr noundef %17) #16
  %30 = getelementptr inbounds nuw i8, ptr %7, i64 1024
  %31 = load ptr, ptr %30, align 8, !tbaa !95
  %32 = tail call i64 @gtk_widget_get_type() #17
  %33 = call ptr @g_type_check_instance_cast(ptr noundef %31, i64 noundef %32) #16
  call void @gtk_widget_grab_focus(ptr noundef %33) #16
  br label %35

34:                                               ; preds = %26
  call void @gtk_tree_selection_unselect_all(ptr noundef %17) #16
  br label %35

35:                                               ; preds = %26, %24, %34, %29
  %.1 = phi i32 [ 1, %29 ], [ 1, %34 ], [ 1, %24 ], [ 0, %26 ]
  call void @llvm.lifetime.end.p0(i64 8, ptr nonnull %5) #16
  call void @llvm.lifetime.end.p0(i64 32, ptr nonnull %4) #16
  ret i32 %.1
}